target datalayout = "e-m:e-p270:32:32-p271:32:32-p272:64:64-i64:64-i128:128-f80:128-n8:16:32:64-S128"
target triple = "x86_64-pc-linux-gnu"

%struct.lua_State = type { ptr, i8, i8, i8, i8, i16, %union.StkIdRel, ptr, ptr, %union.StkIdRel, %union.StkIdRel, ptr, %union.StkIdRel, ptr, ptr, ptr, %struct.CallInfo, ptr, i64, i32, i32, i32, i32, i32, %struct.anon.2 }
%union.StkIdRel = type { ptr }
%struct.CallInfo = type { %union.StkIdRel, %union.StkIdRel, ptr, ptr, %union.anon, %union.anon.1, i32 }
%union.anon = type { %struct.anon.0 }
%struct.anon.0 = type { ptr, i64, i64 }
%union.anon.1 = type { i32 }
%struct.anon.2 = type { i32, i32 }

@.str.2 = private unnamed_addr constant [5 x i8] c"call\00", align 1
@.str.10 = private unnamed_addr constant [1 x i8] zeroinitializer, align 1
@.str.30 = private unnamed_addr constant [11 x i8] c" (%s '%s')\00", align 1

; Function Attrs: nounwind uwtable
define internal ptr @formatvarinfo(ptr noundef %0, ptr noundef %1, ptr noundef %2) #0 {
  %4 = alloca ptr, align 8
  %5 = alloca ptr, align 8
  %6 = alloca ptr, align 8
  %7 = alloca ptr, align 8
  store ptr %0, ptr %5, align 8, !tbaa !30
  store ptr %1, ptr %6, align 8, !tbaa !58
  store ptr %2, ptr %7, align 8, !tbaa !58
  %8 = load ptr, ptr %6, align 8, !tbaa !58
  %9 = icmp eq ptr %8, null
  br i1 %9, label %10, label %11

10:                                               ; preds = %3
  store ptr @.str.10, ptr %4, align 8
  br label %16

11:                                               ; preds = %3
  %12 = load ptr, ptr %5, align 8, !tbaa !30
  %13 = load ptr, ptr %6, align 8, !tbaa !58
  %14 = load ptr, ptr %7, align 8, !tbaa !58
  %15 = call ptr (ptr, ptr, ...) @luaO_pushfstring(ptr noundef %12, ptr noundef @.str.30, ptr noundef %13, ptr noundef %14)
  store ptr %15, ptr %4, align 8
  br label %16

16:                                               ; preds = %11, %10
  %17 = load ptr, ptr %4, align 8
  ret ptr %17
}

; Function Attrs: noreturn nounwind uwtable
define hidden void @luaG_callerror(ptr noundef %0, ptr noundef %1) #5 {
  %3 = alloca ptr, align 8
  %4 = alloca ptr, align 8
  %5 = alloca ptr, align 8
  %6 = alloca ptr, align 8
  %7 = alloca ptr, align 8
  %8 = alloca ptr, align 8
  store ptr %0, ptr %3, align 8, !tbaa !30
  store ptr %1, ptr %4, align 8, !tbaa !64
  call void @llvm.lifetime.start.p0(i64 8, ptr %5) #8
  %9 = load ptr, ptr %3, align 8, !tbaa !30
  %10 = getelementptr inbounds nuw %struct.lua_State, ptr %9, i32 0, i32 8
  %11 = load ptr, ptr %10, align 8, !tbaa !46
  store ptr %11, ptr %5, align 8, !tbaa !47
  call void @llvm.lifetime.start.p0(i64 8, ptr %6) #8
  store ptr null, ptr %6, align 8, !tbaa !58
  call void @llvm.lifetime.start.p0(i64 8, ptr %7) #8
  %12 = load ptr, ptr %3, align 8, !tbaa !30
  %13 = load ptr, ptr %5, align 8, !tbaa !47
  %14 = call ptr @funcnamefromcall(ptr noundef %12, ptr noundef %13, ptr noundef %6)
  store ptr %14, ptr %7, align 8, !tbaa !58
  call void @llvm.lifetime.start.p0(i64 8, ptr %8) #8
  %15 = load ptr, ptr %7, align 8, !tbaa !58
  %16 = icmp ne ptr %15, null
  br i1 %16, label %17, label %22

17:                                               ; preds = %2
  %18 = load ptr, ptr %3, align 8, !tbaa !30
  %19 = load ptr, ptr %7, align 8, !tbaa !58
  %20 = load ptr, ptr %6, align 8, !tbaa !58
  %21 = call ptr @formatvarinfo(ptr noundef %18, ptr noundef %19, ptr noundef %20)
  br label %26

22:                                               ; preds = %2
  %23 = load ptr, ptr %3, align 8, !tbaa !30
  %24 = load ptr, ptr %4, align 8, !tbaa !64
  %25 = call ptr @varinfo(ptr noundef %23, ptr noundef %24)
  br label %26

26:                                               ; preds = %22, %17
  %27 = phi ptr [ %21, %17 ], [ %25, %22 ]
  store ptr %27, ptr %8, align 8, !tbaa !58
  %28 = load ptr, ptr %3, align 8, !tbaa !30
  %29 = load ptr, ptr %4, align 8, !tbaa !64
  %30 = load ptr, ptr %8, align 8, !tbaa !58
  call void @typeerror(ptr noundef %28, ptr noundef %29, ptr noundef @.str.2, ptr noundef %30) #10
  unreachable
}