; Function Attrs: noreturn nounwind uwtable
define hidden void @luaG_callerror(ptr noundef %0, ptr noundef %1) local_unnamed_addr #9 {
  %3 = alloca ptr, align 8
  %4 = getelementptr inbounds nuw i8, ptr %0, i64 32
  %5 = load ptr, ptr %4, align 8, !tbaa !39
  call void @llvm.lifetime.start.p0(i64 8, ptr nonnull %3) #13
  store ptr null, ptr %3, align 8, !tbaa !85
  %6 = call fastcc ptr @funcnamefromcall(ptr noundef %0, ptr noundef %5, ptr noundef nonnull %3)
  %.not = icmp eq ptr %6, null
  br i1 %.not, label %9, label %formatvarinfo.exit

formatvarinfo.exit:                               ; preds = %2
  %7 = load ptr, ptr %3, align 8, !tbaa !85
  %8 = tail call ptr (ptr, ptr, ...) @luaO_pushfstring(ptr noundef nonnull %0, ptr noundef nonnull @.str.30, ptr noundef nonnull %6, ptr noundef %7) #13
  br label %11

9:                                                ; preds = %2
  %10 = tail call fastcc ptr @varinfo(ptr noundef nonnull %0, ptr noundef %1)
  br label %11

11:                                               ; preds = %9, %formatvarinfo.exit
  %12 = phi ptr [ %8, %formatvarinfo.exit ], [ %10, %9 ]
  tail call fastcc void @typeerror(ptr noundef nonnull %0, ptr noundef %1, ptr noundef nonnull @.str.2, ptr noundef %12) #15
  unreachable
}